; Function Attrs: mustprogress nounwind uwtable
define hidden noundef zeroext i1 @_ZN6ciType13is_subtype_ofEPS_(ptr noundef nonnull align 8 dereferenceable(25) %0, ptr noundef %1) local_unnamed_addr #2 align 2 {
  %3 = icmp eq ptr %0, %1
  br i1 %3, label %16, label %4

4:                                                ; preds = %2
  %5 = load ptr, ptr %0, align 8
  %6 = getelementptr inbounds i8, ptr %5, i64 72
  %7 = load ptr, ptr %6, align 8
  %8 = tail call noundef zeroext i1 %7(ptr noundef nonnull align 8 dereferenceable(24) %0) #7
  br i1 %8, label %9, label %16

9:                                                ; preds = %4
  %10 = load ptr, ptr %1, align 8
  %11 = getelementptr inbounds i8, ptr %10, i64 72
  %12 = load ptr, ptr %11, align 8
  %13 = tail call noundef zeroext i1 %12(ptr noundef nonnull align 8 dereferenceable(24) %1) #7
  br i1 %13, label %14, label %16

14:                                               ; preds = %9
  %15 = tail call noundef zeroext i1 @_ZN7ciKlass13is_subtype_ofEPS_(ptr noundef nonnull align 8 dereferenceable(44) %0, ptr noundef nonnull %1) #7
  br label %16

16:                                               ; preds = %4, %9, %2, %14
  %.0 = phi i1 [ %15, %14 ], [ true, %2 ], [ false, %9 ], [ false, %4 ]
  ret i1 %.0
}